Certificate:
    Data:
        Version: 1 (0x0)
        Serial Number: 1 (0x1)
    Signature Algorithm: sha256WithRSAEncryption
        Issuer: C=US, ST=CA, L=Santa Clara, O=Real Time Innovations, CN=RTI CA/emailAddress=secure@rti.com
        Validity
            Not Before: Jun 21 21:30:20 2018 GMT
            Not After : Jun 18 21:30:20 2028 GMT
        Subject: C=US, ST=CA, O=Real Time Innovations, CN=openfmbexample/emailAddress=support@rti.com
        Subject Public Key Info:
            Public Key Algorithm: rsaEncryption
                Public-Key: (2048 bit)
                Modulus:
                    00:ed:7f:9d:79:b2:c8:16:64:c5:79:67:8f:40:4a:
                    79:81:bf:1e:23:f8:92:54:c6:bf:1c:7a:b3:ec:f9:
                    fc:e0:2f:b4:5e:94:cd:b9:cf:b8:20:d9:6e:e2:c7:
                    1c:e5:51:f8:ea:c0:6c:40:55:35:e3:6e:ef:3a:97:
                    32:50:65:e9:a0:22:35:d1:f3:96:8c:2e:7d:da:28:
                    b9:6c:98:32:1c:9e:3a:9b:ff:84:d3:ef:c5:83:b9:
                    5f:30:77:ba:fb:61:f8:f7:86:99:4c:11:a1:d4:f0:
                    cc:ac:52:76:84:87:7c:25:36:ad:69:d0:b6:8c:1f:
                    6b:9a:3a:cd:bb:47:ac:53:36:de:67:49:2e:a2:77:
                    5f:00:18:00:67:3c:e8:96:d3:1e:60:77:a8:ae:df:
                    5c:93:5c:7a:51:47:8d:03:0b:1f:ea:09:9f:16:7b:
                    ad:fa:bc:aa:ad:73:49:dd:78:e9:1a:38:d3:71:30:
                    6f:d4:7f:8b:49:26:a2:fb:08:d9:65:3e:a4:4d:46:
                    a2:f7:ac:e2:70:fb:41:53:37:b9:ee:0f:52:57:c6:
                    d5:fb:37:4f:2c:a0:43:f3:f8:3f:36:b2:f3:4d:12:
                    91:a8:25:91:04:b9:c4:7f:dc:e9:13:fe:56:9b:f0:
                    13:b6:fd:7a:ed:01:09:01:2e:29:01:84:ab:4a:fe:
                    d5:05
                Exponent: 65537 (0x10001)
    Signature Algorithm: sha256WithRSAEncryption
         b1:73:f7:68:c3:9e:db:fb:49:5d:a4:70:d1:f9:1b:59:0c:6e:
         ff:e6:5f:f8:62:30:aa:70:f0:35:a3:54:c9:a2:81:b9:80:02:
         83:5a:a1:d4:cf:b6:45:a0:4b:d5:05:0c:6e:1a:32:4b:0c:4c:
         bf:a7:63:a5:04:e8:8f:e3:15:2f:7d:3e:ee:4c:19:d2:2f:6e:
         97:64:e5:0d:4d:a6:37:ba:76:b0:57:fa:44:2d:ca:99:fc:24:
         5d:89:18:e0:e5:05:84:02:f4:3c:e5:bc:7b:13:41:c6:3c:5b:
         83:0d:02:c2:53:9b:8a:0a:1a:da:35:ca:b9:3b:83:0f:56:43:
         f2:63:f5:fb:f6:a1:37:9e:57:31:07:0c:8b:07:e9:21:1a:53:
         1f:a8:d8:ca:ed:79:b9:bb:41:72:e9:d4:93:5c:98:82:2e:c9:
         a2:ce:50:4d:5e:cb:43:19:ad:7d:3a:2f:d8:1c:e4:01:ba:f0:
         f2:24:03:90:cb:77:78:bd:11:6a:e3:9b:aa:6d:53:9d:c8:7d:
         af:03:7c:73:6c:81:23:0e:12:8d:35:7a:7b:5f:a7:42:98:74:
         00:99:88:53:a0:63:35:52:03:a0:ea:d0:f5:c6:54:62:a0:4e:
         de:41:10:00:35:84:a6:ed:94:79:39:10:c8:83:d6:3c:ff:64:
         30:9b:da:ff
-----BEGIN CERTIFICATE-----
MIIDaDCCAlACAQEwDQYJKoZIhvcNAQELBQAwgYAxCzAJBgNVBAYTAlVTMQswCQYD
VQQIDAJDQTEUMBIGA1UEBwwLU2FudGEgQ2xhcmExHjAcBgNVBAoMFVJlYWwgVGlt
ZSBJbm5vdmF0aW9uczEPMA0GA1UEAwwGUlRJIENBMR0wGwYJKoZIhvcNAQkBFg5z
ZWN1cmVAcnRpLmNvbTAeFw0xODA2MjEyMTMwMjBaFw0yODA2MTgyMTMwMjBaMHMx
CzAJBgNVBAYTAlVTMQswCQYDVQQIDAJDQTEeMBwGA1UECgwVUmVhbCBUaW1lIElu
bm92YXRpb25zMRcwFQYDVQQDDA5vcGVuZm1iZXhhbXBsZTEeMBwGCSqGSIb3DQEJ
ARYPc3VwcG9ydEBydGkuY29tMIIBIjANBgkqhkiG9w0BAQEFAAOCAQ8AMIIBCgKC
AQEA7X+debLIFmTFeWePQEp5gb8eI/iSVMa/HHqz7Pn84C+0XpTNuc+4INlu4scc
5VH46sBsQFU1427vOpcyUGXpoCI10fOWjC592ii5bJgyHJ46m/+E0+/Fg7lfMHe6
+2H494aZTBGh1PDMrFJ2hId8JTatadC2jB9rmjrNu0esUzbeZ0kuondfABgAZzzo
ltMeYHeort9ck1x6UUeNAwsf6gmfFnut+ryqrXNJ3XjpGjjTcTBv1H+LSSai+wjZ
ZT6kTUai96zicPtBUze57g9SV8bV+zdPLKBD8/g/NrLzTRKRqCWRBLnEf9zpE/5W
m/ATtv167QEJAS4pAYSrSv7VBQIDAQABMA0GCSqGSIb3DQEBCwUAA4IBAQCxc/do
w57b+0ldpHDR+RtZDG7/5l/4YjCqcPA1o1TJooG5gAKDWqHUz7ZFoEvVBQxuGjJL
DEy/p2OlBOiP4xUvfT7uTBnSL26XZOUNTaY3unawV/pELcqZ/CRdiRjg5QWEAvQ8
5bx7E0HGPFuDDQLCU5uKChraNcq5O4MPVkPyY/X79qE3nlcxBwyLB+khGlMfqNjK
7Xm5u0Fy6dSTXJiCLsmizlBNXstDGa19Oi/YHOQBuvDyJAOQy3d4vRFq45uqbVOd
yH2vA3xzbIEjDhKNNXp7X6dCmHQAmYhToGM1UgOg6tD1xlRioE7eQRAANYSm7ZR5
ORDIg9Y8/2Qwm9r/
-----END CERTIFICATE-----
